#include <math.h>
#include <stdio.h>
#include <stdlib.h>
#include <string.h>

//#include <malloc.h>
int main()
{
	int a[100][100],m,n,i,j,k,sum=0;
	scanf("%d",&k);
	
	while(k>0)
	{
		scanf("%d %d",&m,&n);
	for(i=0;i<m;i++)
		for(j=0;j<n;j++)
			scanf("%d",&a[i][j]);
	for(j=0;j<n;j++)
		sum=sum+a[0][j]+a[m-1][j];
	for(i=1;i<m-1;i++)
		sum=sum+a[i][0]+a[i][n-1];
	printf("%d\n",sum);
	sum=0;
	k--;
	}
	return 0;
}
