; ModuleID = '6/3343.c'
source_filename = "6/3343.c"
target datalayout = "e-m:e-p270:32:32-p271:32:32-p272:64:64-i64:64-f80:128-n8:16:32:64-S128"
target triple = "x86_64-pc-linux-gnu"

@.str = private unnamed_addr constant [3 x i8] c"%d\00", align 1
@.str.1 = private unnamed_addr constant [6 x i8] c"%d %d\00", align 1
@.str.2 = private unnamed_addr constant [4 x i8] c"%d\0A\00", align 1

; Function Attrs: noinline nounwind uwtable
define dso_local i32 @main() #0 {
  %1 = alloca i32, align 4
  %2 = alloca [100 x [100 x i32]], align 16
  %3 = alloca i32, align 4
  %4 = alloca i32, align 4
  %5 = alloca i32, align 4
  %6 = alloca i32, align 4
  %7 = alloca i32, align 4
  %8 = alloca i32, align 4
  store i32 0, i32* %1, align 4
  store i32 0, i32* %8, align 4
  %9 = call i32 (i8*, ...) @__isoc99_scanf(i8* getelementptr inbounds ([3 x i8], [3 x i8]* @.str, i64 0, i64 0), i32* %7)
  br label %10

10:                                               ; preds = %90, %0
  %11 = load i32, i32* %7, align 4
  %12 = icmp sgt i32 %11, 0
  br i1 %12, label %13, label %95

13:                                               ; preds = %10
  %14 = call i32 (i8*, ...) @__isoc99_scanf(i8* getelementptr inbounds ([6 x i8], [6 x i8]* @.str.1, i64 0, i64 0), i32* %3, i32* %4)
  store i32 0, i32* %5, align 4
  br label %15

15:                                               ; preds = %36, %13
  %16 = load i32, i32* %5, align 4
  %17 = load i32, i32* %3, align 4
  %18 = icmp slt i32 %16, %17
  br i1 %18, label %19, label %39

19:                                               ; preds = %15
  store i32 0, i32* %6, align 4
  br label %20

20:                                               ; preds = %32, %19
  %21 = load i32, i32* %6, align 4
  %22 = load i32, i32* %4, align 4
  %23 = icmp slt i32 %21, %22
  br i1 %23, label %24, label %35

24:                                               ; preds = %20
  %25 = load i32, i32* %5, align 4
  %26 = sext i32 %25 to i64
  %27 = getelementptr inbounds [100 x [100 x i32]], [100 x [100 x i32]]* %2, i64 0, i64 %26
  %28 = load i32, i32* %6, align 4
  %29 = sext i32 %28 to i64
  %30 = getelementptr inbounds [100 x i32], [100 x i32]* %27, i64 0, i64 %29
  %31 = call i32 (i8*, ...) @__isoc99_scanf(i8* getelementptr inbounds ([3 x i8], [3 x i8]* @.str, i64 0, i64 0), i32* %30)
  br label %32

32:                                               ; preds = %24
  %33 = load i32, i32* %6, align 4
  %34 = add nsw i32 %33, 1
  store i32 %34, i32* %6, align 4
  br label %20

35:                                               ; preds = %20
  br label %36

36:                                               ; preds = %35
  %37 = load i32, i32* %5, align 4
  %38 = add nsw i32 %37, 1
  store i32 %38, i32* %5, align 4
  br label %15

39:                                               ; preds = %15
  store i32 0, i32* %6, align 4
  br label %40

40:                                               ; preds = %61, %39
  %41 = load i32, i32* %6, align 4
  %42 = load i32, i32* %4, align 4
  %43 = icmp slt i32 %41, %42
  br i1 %43, label %44, label %64

44:                                               ; preds = %40
  %45 = load i32, i32* %8, align 4
  %46 = getelementptr inbounds [100 x [100 x i32]], [100 x [100 x i32]]* %2, i64 0, i64 0
  %47 = load i32, i32* %6, align 4
  %48 = sext i32 %47 to i64
  %49 = getelementptr inbounds [100 x i32], [100 x i32]* %46, i64 0, i64 %48
  %50 = load i32, i32* %49, align 4
  %51 = add nsw i32 %45, %50
  %52 = load i32, i32* %3, align 4
  %53 = sub nsw i32 %52, 1
  %54 = sext i32 %53 to i64
  %55 = getelementptr inbounds [100 x [100 x i32]], [100 x [100 x i32]]* %2, i64 0, i64 %54
  %56 = load i32, i32* %6, align 4
  %57 = sext i32 %56 to i64
  %58 = getelementptr inbounds [100 x i32], [100 x i32]* %55, i64 0, i64 %57
  %59 = load i32, i32* %58, align 4
  %60 = add nsw i32 %51, %59
  store i32 %60, i32* %8, align 4
  br label %61

61:                                               ; preds = %44
  %62 = load i32, i32* %6, align 4
  %63 = add nsw i32 %62, 1
  store i32 %63, i32* %6, align 4
  br label %40

64:                                               ; preds = %40
  store i32 1, i32* %5, align 4
  br label %65

65:                                               ; preds = %87, %64
  %66 = load i32, i32* %5, align 4
  %67 = load i32, i32* %3, align 4
  %68 = sub nsw i32 %67, 1
  %69 = icmp slt i32 %66, %68
  br i1 %69, label %70, label %90

70:                                               ; preds = %65
  %71 = load i32, i32* %8, align 4
  %72 = load i32, i32* %5, align 4
  %73 = sext i32 %72 to i64
  %74 = getelementptr inbounds [100 x [100 x i32]], [100 x [100 x i32]]* %2, i64 0, i64 %73
  %75 = getelementptr inbounds [100 x i32], [100 x i32]* %74, i64 0, i64 0
  %76 = load i32, i32* %75, align 16
  %77 = add nsw i32 %71, %76
  %78 = load i32, i32* %5, align 4
  %79 = sext i32 %78 to i64
  %80 = getelementptr inbounds [100 x [100 x i32]], [100 x [100 x i32]]* %2, i64 0, i64 %79
  %81 = load i32, i32* %4, align 4
  %82 = sub nsw i32 %81, 1
  %83 = sext i32 %82 to i64
  %84 = getelementptr inbounds [100 x i32], [100 x i32]* %80, i64 0, i64 %83
  %85 = load i32, i32* %84, align 4
  %86 = add nsw i32 %77, %85
  store i32 %86, i32* %8, align 4
  br label %87

87:                                               ; preds = %70
  %88 = load i32, i32* %5, align 4
  %89 = add nsw i32 %88, 1
  store i32 %89, i32* %5, align 4
  br label %65

90:                                               ; preds = %65
  %91 = load i32, i32* %8, align 4
  %92 = call i32 (i8*, ...) @printf(i8* getelementptr inbounds ([4 x i8], [4 x i8]* @.str.2, i64 0, i64 0), i32 %91)
  store i32 0, i32* %8, align 4
  %93 = load i32, i32* %7, align 4
  %94 = add nsw i32 %93, -1
  store i32 %94, i32* %7, align 4
  br label %10

95:                                               ; preds = %10
  ret i32 0
}

declare dso_local i32 @__isoc99_scanf(i8*, ...) #1

declare dso_local i32 @printf(i8*, ...) #1


!llvm.module.flags = !{!0}
!llvm.ident = !{!1}

!0 = !{i32 1, !"wchar_size", i32 4}
!1 = !{!"clang version 10.0.0-4ubuntu1 "}
